; ModuleID = '1/2054.c'
source_filename = "1/2054.c"
target datalayout = "e-m:e-p270:32:32-p271:32:32-p272:64:64-i64:64-f80:128-n8:16:32:64-S128"
target triple = "x86_64-pc-linux-gnu"

@.str = private unnamed_addr constant [3 x i8] c"%d\00", align 1
@.str.1 = private unnamed_addr constant [4 x i8] c"%d\0A\00", align 1

; Function Attrs: noinline nounwind uwtable
define dso_local i32 @number(i32 %0, i32 %1) #0 {
  %3 = alloca i32, align 4
  %4 = alloca i32, align 4
  %5 = alloca i32, align 4
  %6 = alloca i32, align 4
  %7 = alloca i32, align 4
  %8 = alloca i32, align 4
  %9 = alloca i32, align 4
  %10 = alloca i32, align 4
  %11 = alloca i32, align 4
  %12 = alloca i32, align 4
  store i32 %0, i32* %4, align 4
  store i32 %1, i32* %5, align 4
  %13 = load i32, i32* %4, align 4
  %14 = sitofp i32 %13 to double
  %15 = call double @sqrt(double %14) #3
  %16 = fptosi double %15 to i32
  store i32 %16, i32* %11, align 4
  %17 = load i32, i32* %5, align 4
  %18 = load i32, i32* %4, align 4
  %19 = icmp sgt i32 %17, %18
  br i1 %19, label %20, label %21

20:                                               ; preds = %2
  store i32 0, i32* %3, align 4
  br label %52

21:                                               ; preds = %2
  %22 = load i32, i32* %5, align 4
  %23 = load i32, i32* %11, align 4
  %24 = icmp sgt i32 %22, %23
  br i1 %24, label %25, label %26

25:                                               ; preds = %21
  store i32 1, i32* %3, align 4
  br label %52

26:                                               ; preds = %21
  store i32 1, i32* %10, align 4
  %27 = load i32, i32* %5, align 4
  store i32 %27, i32* %6, align 4
  br label %28

28:                                               ; preds = %47, %26
  %29 = load i32, i32* %6, align 4
  %30 = load i32, i32* %11, align 4
  %31 = icmp sle i32 %29, %30
  br i1 %31, label %32, label %50

32:                                               ; preds = %28
  %33 = load i32, i32* %4, align 4
  %34 = load i32, i32* %6, align 4
  %35 = srem i32 %33, %34
  %36 = icmp eq i32 %35, 0
  br i1 %36, label %37, label %45

37:                                               ; preds = %32
  %38 = load i32, i32* %10, align 4
  %39 = load i32, i32* %4, align 4
  %40 = load i32, i32* %6, align 4
  %41 = sdiv i32 %39, %40
  %42 = load i32, i32* %6, align 4
  %43 = call i32 @number(i32 %41, i32 %42)
  %44 = add nsw i32 %38, %43
  store i32 %44, i32* %10, align 4
  br label %46

45:                                               ; preds = %32
  br label %46

46:                                               ; preds = %45, %37
  br label %47

47:                                               ; preds = %46
  %48 = load i32, i32* %6, align 4
  %49 = add nsw i32 %48, 1
  store i32 %49, i32* %6, align 4
  br label %28

50:                                               ; preds = %28
  %51 = load i32, i32* %10, align 4
  store i32 %51, i32* %3, align 4
  br label %52

52:                                               ; preds = %50, %25, %20
  %53 = load i32, i32* %3, align 4
  ret i32 %53
}

; Function Attrs: nounwind
declare dso_local double @sqrt(double) #1

; Function Attrs: noinline nounwind uwtable
define dso_local i32 @main() #0 {
  %1 = alloca i32, align 4
  %2 = alloca i32, align 4
  %3 = alloca i32, align 4
  %4 = alloca i32, align 4
  %5 = alloca i32, align 4
  store i32 0, i32* %1, align 4
  %6 = call i32 (i8*, ...) @__isoc99_scanf(i8* getelementptr inbounds ([3 x i8], [3 x i8]* @.str, i64 0, i64 0), i32* %2)
  store i32 1, i32* %3, align 4
  br label %7

7:                                                ; preds = %17, %0
  %8 = load i32, i32* %3, align 4
  %9 = load i32, i32* %2, align 4
  %10 = icmp sle i32 %8, %9
  br i1 %10, label %11, label %20

11:                                               ; preds = %7
  %12 = call i32 (i8*, ...) @__isoc99_scanf(i8* getelementptr inbounds ([3 x i8], [3 x i8]* @.str, i64 0, i64 0), i32* %4)
  %13 = load i32, i32* %4, align 4
  %14 = call i32 @number(i32 %13, i32 2)
  store i32 %14, i32* %5, align 4
  %15 = load i32, i32* %5, align 4
  %16 = call i32 (i8*, ...) @printf(i8* getelementptr inbounds ([4 x i8], [4 x i8]* @.str.1, i64 0, i64 0), i32 %15)
  br label %17

17:                                               ; preds = %11
  %18 = load i32, i32* %3, align 4
  %19 = add nsw i32 %18, 1
  store i32 %19, i32* %3, align 4
  br label %7

20:                                               ; preds = %7
  %21 = load i32, i32* %1, align 4
  ret i32 %21
}

declare dso_local i32 @__isoc99_scanf(i8*, ...) #2

declare dso_local i32 @printf(i8*, ...) #2


!llvm.module.flags = !{!0}
!llvm.ident = !{!1}

!0 = !{i32 1, !"wchar_size", i32 4}
!1 = !{!"clang version 10.0.0-4ubuntu1 "}
