; ModuleID = 'source-C-CXX/0/2054.c'
source_filename = "source-C-CXX/0/2054.c"
target datalayout = "e-m:e-p270:32:32-p271:32:32-p272:64:64-i64:64-f80:128-n8:16:32:64-S128"
target triple = "x86_64-pc-linux-gnu"

@.str = private unnamed_addr constant [3 x i8] c"%d\00", align 1
@.str.1 = private unnamed_addr constant [4 x i8] c"%d\0A\00", align 1

; Function Attrs: nofree nounwind sspstrong uwtable
define dso_local i32 @number(i32 %0, i32 %1) local_unnamed_addr #0 {
  %3 = sitofp i32 %0 to double
  %4 = tail call double @sqrt(double %3) #4
  %5 = fptosi double %4 to i32
  %6 = icmp sgt i32 %1, %0
  br i1 %6, label %22, label %7

7:                                                ; preds = %2
  %8 = icmp slt i32 %5, %1
  br i1 %8, label %22, label %9

9:                                                ; preds = %7, %18
  %10 = phi i32 [ %20, %18 ], [ %1, %7 ]
  %11 = phi i32 [ %19, %18 ], [ 1, %7 ]
  %12 = srem i32 %0, %10
  %13 = sdiv i32 %0, %10
  %14 = icmp eq i32 %12, 0
  br i1 %14, label %15, label %18

15:                                               ; preds = %9
  %16 = tail call i32 @number(i32 %13, i32 %10)
  %17 = add nsw i32 %16, %11
  br label %18

18:                                               ; preds = %15, %9
  %19 = phi i32 [ %17, %15 ], [ %11, %9 ]
  %20 = add i32 %10, 1
  %21 = icmp eq i32 %10, %5
  br i1 %21, label %22, label %9, !llvm.loop !5

22:                                               ; preds = %18, %7, %2
  %23 = phi i32 [ 0, %2 ], [ 1, %7 ], [ %19, %18 ]
  ret i32 %23
}

; Function Attrs: argmemonly mustprogress nofree nosync nounwind willreturn
declare void @llvm.lifetime.start.p0i8(i64 immarg, i8* nocapture) #1

; Function Attrs: mustprogress nofree nounwind willreturn
declare double @sqrt(double) local_unnamed_addr #2

; Function Attrs: argmemonly mustprogress nofree nosync nounwind willreturn
declare void @llvm.lifetime.end.p0i8(i64 immarg, i8* nocapture) #1

; Function Attrs: nofree nounwind sspstrong uwtable
define dso_local i32 @main() local_unnamed_addr #0 {
  %1 = alloca i32, align 4
  %2 = alloca i32, align 4
  %3 = bitcast i32* %1 to i8*
  call void @llvm.lifetime.start.p0i8(i64 4, i8* nonnull %3) #4
  %4 = call i32 (i8*, ...) @__isoc99_scanf(i8* getelementptr inbounds ([3 x i8], [3 x i8]* @.str, i64 0, i64 0), i32* nonnull %1)
  %5 = bitcast i32* %2 to i8*
  %6 = load i32, i32* %1, align 4, !tbaa !7
  %7 = icmp slt i32 %6, 1
  br i1 %7, label %17, label %8

8:                                                ; preds = %0, %8
  %9 = phi i32 [ %14, %8 ], [ 1, %0 ]
  call void @llvm.lifetime.start.p0i8(i64 4, i8* nonnull %5) #4
  %10 = call i32 (i8*, ...) @__isoc99_scanf(i8* getelementptr inbounds ([3 x i8], [3 x i8]* @.str, i64 0, i64 0), i32* nonnull %2)
  %11 = load i32, i32* %2, align 4, !tbaa !7
  %12 = call i32 @number(i32 %11, i32 2)
  %13 = call i32 (i8*, ...) @printf(i8* nonnull dereferenceable(1) getelementptr inbounds ([4 x i8], [4 x i8]* @.str.1, i64 0, i64 0), i32 %12)
  call void @llvm.lifetime.end.p0i8(i64 4, i8* nonnull %5) #4
  %14 = add nuw nsw i32 %9, 1
  %15 = load i32, i32* %1, align 4, !tbaa !7
  %16 = icmp slt i32 %9, %15
  br i1 %16, label %8, label %17, !llvm.loop !11

17:                                               ; preds = %8, %0
  call void @llvm.lifetime.end.p0i8(i64 4, i8* nonnull %3) #4
  ret i32 0
}

; Function Attrs: nofree nounwind
declare noundef i32 @__isoc99_scanf(i8* nocapture noundef readonly, ...) local_unnamed_addr #3

; Function Attrs: nofree nounwind
declare noundef i32 @printf(i8* nocapture noundef readonly, ...) local_unnamed_addr #3


!llvm.module.flags = !{!0, !1, !2, !3}
!llvm.ident = !{!4}

!0 = !{i32 1, !"wchar_size", i32 4}
!1 = !{i32 7, !"PIC Level", i32 2}
!2 = !{i32 7, !"PIE Level", i32 2}
!3 = !{i32 7, !"uwtable", i32 1}
!4 = !{!"clang version 13.0.0"}
!5 = distinct !{!5, !6}
!6 = !{!"llvm.loop.mustprogress"}
!7 = !{!8, !8, i64 0}
!8 = !{!"int", !9, i64 0}
!9 = !{!"omnipotent char", !10, i64 0}
!10 = !{!"Simple C/C++ TBAA"}
!11 = distinct !{!11, !6}
